target datalayout = "e-m:e-p270:32:32-p271:32:32-p272:64:64-i64:64-i128:128-f80:128-n8:16:32:64-S128"
target triple = "x86_64-unknown-linux-gnu"

@_ZN6icu_7520CompactDecimalFormatC1ERKS0_ = unnamed_addr alias void (ptr, ptr), ptr @_ZN6icu_7520CompactDecimalFormatC2ERKS0_

; Function Attrs: mustprogress uwtable
define noundef ptr @_ZNK6icu_7520CompactDecimalFormat5cloneEv(ptr noundef nonnull align 8 dereferenceable(368) %this) unnamed_addr #1 align 2 personality ptr @__gxx_personality_v0 {
entry:
  %this.addr = alloca ptr, align 8
  %cleanup.cond = alloca i1, align 1
  %exn.slot = alloca ptr, align 8
  %ehselector.slot = alloca i32, align 4
  store ptr %this, ptr %this.addr, align 8
  %this1 = load ptr, ptr %this.addr, align 8
  %call = call noundef ptr @_ZN6icu_757UMemorynwEm(i64 noundef 368) #7
  %new.isnull = icmp eq ptr %call, null
  store i1 false, ptr %cleanup.cond, align 1
  br i1 %new.isnull, label %new.cont, label %new.notnull

new.notnull:                                      ; preds = %entry
  store i1 true, ptr %cleanup.cond, align 1
  invoke void @_ZN6icu_7520CompactDecimalFormatC1ERKS0_(ptr noundef nonnull align 8 dereferenceable(368) %call, ptr noundef nonnull align 8 dereferenceable(368) %this1)
          to label %invoke.cont unwind label %lpad

invoke.cont:                                      ; preds = %new.notnull
  br label %new.cont

new.cont:                                         ; preds = %invoke.cont, %entry
  %0 = phi ptr [ %call, %invoke.cont ], [ null, %entry ]
  ret ptr %0

lpad:                                             ; preds = %new.notnull
  %1 = landingpad { ptr, i32 }
          cleanup
  %2 = extractvalue { ptr, i32 } %1, 0
  store ptr %2, ptr %exn.slot, align 8
  %3 = extractvalue { ptr, i32 } %1, 1
  store i32 %3, ptr %ehselector.slot, align 4
  %cleanup.is_active = load i1, ptr %cleanup.cond, align 1
  br i1 %cleanup.is_active, label %cleanup.action, label %cleanup.done

cleanup.action:                                   ; preds = %lpad
  call void @_ZN6icu_757UMemorydlEPv(ptr noundef %call) #7
  br label %cleanup.done

cleanup.done:                                     ; preds = %cleanup.action, %lpad
  br label %eh.resume

eh.resume:                                        ; preds = %cleanup.done
  %exn = load ptr, ptr %exn.slot, align 8
  %sel = load i32, ptr %ehselector.slot, align 4
  %lpad.val = insertvalue { ptr, i32 } poison, ptr %exn, 0
  %lpad.val2 = insertvalue { ptr, i32 } %lpad.val, i32 %sel, 1
  resume { ptr, i32 } %lpad.val2
}